target datalayout = "e-m:e-p270:32:32-p271:32:32-p272:64:64-i64:64-i128:128-f80:128-n8:16:32:64-S128"
target triple = "x86_64-pc-linux-gnu"

%struct.Vec_Int_t_ = type { i32, i32, ptr }
%struct.Kit_DsdObj_t_ = type { i32, [0 x i16] }
%struct.Kit_DsdNtk_t_ = type { i16, i16, i16, i16, ptr, ptr, ptr }

; Function Attrs: nounwind uwtable
define internal void @Vec_IntGrow(ptr noundef %0, i32 noundef %1) #0 {
  %3 = alloca ptr, align 8
  %4 = alloca i32, align 4
  store ptr %0, ptr %3, align 8
  store i32 %1, ptr %4, align 4
  %5 = load ptr, ptr %3, align 8
  %6 = getelementptr inbounds %struct.Vec_Int_t_, ptr %5, i32 0, i32 0
  %7 = load i32, ptr %6, align 8
  %8 = load i32, ptr %4, align 4
  %9 = icmp sge i32 %7, %8
  br i1 %9, label %10, label %11

10:                                               ; preds = %2
  br label %36

11:                                               ; preds = %2
  %12 = load ptr, ptr %3, align 8
  %13 = getelementptr inbounds %struct.Vec_Int_t_, ptr %12, i32 0, i32 2
  %14 = load ptr, ptr %13, align 8
  %15 = icmp ne ptr %14, null
  br i1 %15, label %16, label %24

16:                                               ; preds = %11
  %17 = load ptr, ptr %3, align 8
  %18 = getelementptr inbounds %struct.Vec_Int_t_, ptr %17, i32 0, i32 2
  %19 = load ptr, ptr %18, align 8
  %20 = load i32, ptr %4, align 4
  %21 = sext i32 %20 to i64
  %22 = mul i64 4, %21
  %23 = call ptr @realloc(ptr noundef %19, i64 noundef %22) #9
  br label %29

24:                                               ; preds = %11
  %25 = load i32, ptr %4, align 4
  %26 = sext i32 %25 to i64
  %27 = mul i64 4, %26
  %28 = call noalias ptr @malloc(i64 noundef %27) #7
  br label %29

29:                                               ; preds = %24, %16
  %30 = phi ptr [ %23, %16 ], [ %28, %24 ]
  %31 = load ptr, ptr %3, align 8
  %32 = getelementptr inbounds %struct.Vec_Int_t_, ptr %31, i32 0, i32 2
  store ptr %30, ptr %32, align 8
  %33 = load i32, ptr %4, align 4
  %34 = load ptr, ptr %3, align 8
  %35 = getelementptr inbounds %struct.Vec_Int_t_, ptr %34, i32 0, i32 0
  store i32 %33, ptr %35, align 8
  br label %36

36:                                               ; preds = %29, %10
  ret void
}

; Function Attrs: nounwind uwtable
define internal void @Vec_IntPush(ptr noundef %0, i32 noundef %1) #0 {
  %3 = alloca ptr, align 8
  %4 = alloca i32, align 4
  store ptr %0, ptr %3, align 8
  store i32 %1, ptr %4, align 4
  %5 = load ptr, ptr %3, align 8
  %6 = getelementptr inbounds %struct.Vec_Int_t_, ptr %5, i32 0, i32 1
  %7 = load i32, ptr %6, align 4
  %8 = load ptr, ptr %3, align 8
  %9 = getelementptr inbounds %struct.Vec_Int_t_, ptr %8, i32 0, i32 0
  %10 = load i32, ptr %9, align 8
  %11 = icmp eq i32 %7, %10
  br i1 %11, label %12, label %26

12:                                               ; preds = %2
  %13 = load ptr, ptr %3, align 8
  %14 = getelementptr inbounds %struct.Vec_Int_t_, ptr %13, i32 0, i32 0
  %15 = load i32, ptr %14, align 8
  %16 = icmp slt i32 %15, 16
  br i1 %16, label %17, label %19

17:                                               ; preds = %12
  %18 = load ptr, ptr %3, align 8
  call void @Vec_IntGrow(ptr noundef %18, i32 noundef 16)
  br label %25

19:                                               ; preds = %12
  %20 = load ptr, ptr %3, align 8
  %21 = load ptr, ptr %3, align 8
  %22 = getelementptr inbounds %struct.Vec_Int_t_, ptr %21, i32 0, i32 0
  %23 = load i32, ptr %22, align 8
  %24 = mul nsw i32 2, %23
  call void @Vec_IntGrow(ptr noundef %20, i32 noundef %24)
  br label %25

25:                                               ; preds = %19, %17
  br label %26

26:                                               ; preds = %25, %2
  %27 = load i32, ptr %4, align 4
  %28 = load ptr, ptr %3, align 8
  %29 = getelementptr inbounds %struct.Vec_Int_t_, ptr %28, i32 0, i32 2
  %30 = load ptr, ptr %29, align 8
  %31 = load ptr, ptr %3, align 8
  %32 = getelementptr inbounds %struct.Vec_Int_t_, ptr %31, i32 0, i32 1
  %33 = load i32, ptr %32, align 4
  %34 = add nsw i32 %33, 1
  store i32 %34, ptr %32, align 4
  %35 = sext i32 %33 to i64
  %36 = getelementptr inbounds i32, ptr %30, i64 %35
  store i32 %27, ptr %36, align 4
  ret void
}

; Function Attrs: nounwind uwtable
define internal ptr @Vec_IntAlloc(i32 noundef %0) #0 {
  %2 = alloca i32, align 4
  %3 = alloca ptr, align 8
  store i32 %0, ptr %2, align 4
  %4 = call noalias ptr @malloc(i64 noundef 16) #7
  store ptr %4, ptr %3, align 8
  %5 = load i32, ptr %2, align 4
  %6 = icmp sgt i32 %5, 0
  br i1 %6, label %7, label %11

7:                                                ; preds = %1
  %8 = load i32, ptr %2, align 4
  %9 = icmp slt i32 %8, 16
  br i1 %9, label %10, label %11

10:                                               ; preds = %7
  store i32 16, ptr %2, align 4
  br label %11

11:                                               ; preds = %10, %7, %1
  %12 = load ptr, ptr %3, align 8
  %13 = getelementptr inbounds %struct.Vec_Int_t_, ptr %12, i32 0, i32 1
  store i32 0, ptr %13, align 4
  %14 = load i32, ptr %2, align 4
  %15 = load ptr, ptr %3, align 8
  %16 = getelementptr inbounds %struct.Vec_Int_t_, ptr %15, i32 0, i32 0
  store i32 %14, ptr %16, align 8
  %17 = load ptr, ptr %3, align 8
  %18 = getelementptr inbounds %struct.Vec_Int_t_, ptr %17, i32 0, i32 0
  %19 = load i32, ptr %18, align 8
  %20 = icmp ne i32 %19, 0
  br i1 %20, label %21, label %28

21:                                               ; preds = %11
  %22 = load ptr, ptr %3, align 8
  %23 = getelementptr inbounds %struct.Vec_Int_t_, ptr %22, i32 0, i32 0
  %24 = load i32, ptr %23, align 8
  %25 = sext i32 %24 to i64
  %26 = mul i64 4, %25
  %27 = call noalias ptr @malloc(i64 noundef %26) #7
  br label %29

28:                                               ; preds = %11
  br label %29

29:                                               ; preds = %28, %21
  %30 = phi ptr [ %27, %21 ], [ null, %28 ]
  %31 = load ptr, ptr %3, align 8
  %32 = getelementptr inbounds %struct.Vec_Int_t_, ptr %31, i32 0, i32 2
  store ptr %30, ptr %32, align 8
  %33 = load ptr, ptr %3, align 8
  ret ptr %33
}

; Function Attrs: nounwind uwtable
define internal i32 @Abc_LitIsCompl(i32 noundef %0) #0 {
  %2 = alloca i32, align 4
  store i32 %0, ptr %2, align 4
  %3 = load i32, ptr %2, align 4
  %4 = and i32 %3, 1
  ret i32 %4
}

; Function Attrs: nounwind uwtable
define internal i32 @Abc_LitRegular(i32 noundef %0) #0 {
  %2 = alloca i32, align 4
  store i32 %0, ptr %2, align 4
  %3 = load i32, ptr %2, align 4
  %4 = and i32 %3, -2
  ret i32 %4
}

; Function Attrs: nounwind uwtable
define internal ptr @Kit_DsdNtkObj(ptr noundef %0, i32 noundef %1) #0 {
  %3 = alloca ptr, align 8
  %4 = alloca i32, align 4
  store ptr %0, ptr %3, align 8
  store i32 %1, ptr %4, align 4
  %5 = load i32, ptr %4, align 4
  %6 = load ptr, ptr %3, align 8
  %7 = getelementptr inbounds %struct.Kit_DsdNtk_t_, ptr %6, i32 0, i32 0
  %8 = load i16, ptr %7, align 8
  %9 = zext i16 %8 to i32
  %10 = icmp slt i32 %5, %9
  br i1 %10, label %11, label %12

11:                                               ; preds = %2
  br label %25

12:                                               ; preds = %2
  %13 = load ptr, ptr %3, align 8
  %14 = getelementptr inbounds %struct.Kit_DsdNtk_t_, ptr %13, i32 0, i32 6
  %15 = load ptr, ptr %14, align 8
  %16 = load i32, ptr %4, align 4
  %17 = load ptr, ptr %3, align 8
  %18 = getelementptr inbounds %struct.Kit_DsdNtk_t_, ptr %17, i32 0, i32 0
  %19 = load i16, ptr %18, align 8
  %20 = zext i16 %19 to i32
  %21 = sub nsw i32 %16, %20
  %22 = sext i32 %21 to i64
  %23 = getelementptr inbounds ptr, ptr %15, i64 %22
  %24 = load ptr, ptr %23, align 8
  br label %25

25:                                               ; preds = %12, %11
  %26 = phi ptr [ null, %11 ], [ %24, %12 ]
  ret ptr %26
}

; Function Attrs: nounwind uwtable
define internal i32 @Abc_Lit2Var(i32 noundef %0) #0 {
  %2 = alloca i32, align 4
  store i32 %0, ptr %2, align 4
  %3 = load i32, ptr %2, align 4
  %4 = ashr i32 %3, 1
  ret i32 %4
}

; Function Attrs: nounwind uwtable
define void @Amap_CreateCheckAsym_rec(ptr noundef %0, i32 noundef %1, ptr noundef %2) #0 {
  %4 = alloca ptr, align 8
  %5 = alloca i32, align 4
  %6 = alloca ptr, align 8
  %7 = alloca ptr, align 8
  %8 = alloca i32, align 4
  %9 = alloca i32, align 4
  %10 = alloca i32, align 4
  store ptr %0, ptr %4, align 8
  store i32 %1, ptr %5, align 4
  store ptr %2, ptr %6, align 8
  %11 = load ptr, ptr %4, align 8
  %12 = load i32, ptr %5, align 4
  %13 = call i32 @Abc_Lit2Var(i32 noundef %12)
  %14 = call ptr @Kit_DsdNtkObj(ptr noundef %11, i32 noundef %13)
  store ptr %14, ptr %7, align 8
  %15 = load ptr, ptr %7, align 8
  %16 = icmp eq ptr %15, null
  br i1 %16, label %17, label %18

17:                                               ; preds = %3
  br label %144

18:                                               ; preds = %3
  store i32 0, ptr %8, align 4
  br label %19

19:                                               ; preds = %40, %18
  %20 = load i32, ptr %8, align 4
  %21 = load ptr, ptr %7, align 8
  %22 = load i32, ptr %21, align 4
  %23 = lshr i32 %22, 26
  %24 = icmp slt i32 %20, %23
  br i1 %24, label %25, label %33

25:                                               ; preds = %19
  %26 = load ptr, ptr %7, align 8
  %27 = getelementptr inbounds %struct.Kit_DsdObj_t_, ptr %26, i32 0, i32 1
  %28 = load i32, ptr %8, align 4
  %29 = sext i32 %28 to i64
  %30 = getelementptr inbounds [0 x i16], ptr %27, i64 0, i64 %29
  %31 = load i16, ptr %30, align 2
  %32 = zext i16 %31 to i32
  store i32 %32, ptr %10, align 4
  br label %33

33:                                               ; preds = %25, %19
  %34 = phi i1 [ false, %19 ], [ true, %25 ]
  br i1 %34, label %35, label %43

35:                                               ; preds = %33
  %36 = load ptr, ptr %4, align 8
  %37 = load i32, ptr %10, align 4
  %38 = call i32 @Abc_LitRegular(i32 noundef %37)
  %39 = load ptr, ptr %6, align 8
  call void @Amap_CreateCheckAsym_rec(ptr noundef %36, i32 noundef %38, ptr noundef %39)
  br label %40

40:                                               ; preds = %35
  %41 = load i32, ptr %8, align 4
  %42 = add nsw i32 %41, 1
  store i32 %42, ptr %8, align 4
  br label %19, !llvm.loop !23

43:                                               ; preds = %33
  %44 = load ptr, ptr %7, align 8
  %45 = load i32, ptr %44, align 4
  %46 = lshr i32 %45, 6
  %47 = and i32 %46, 7
  %48 = icmp eq i32 %47, 5
  br i1 %48, label %49, label %50

49:                                               ; preds = %43
  br label %144

50:                                               ; preds = %43
  store i32 0, ptr %8, align 4
  br label %51

51:                                               ; preds = %141, %50
  %52 = load i32, ptr %8, align 4
  %53 = load ptr, ptr %7, align 8
  %54 = load i32, ptr %53, align 4
  %55 = lshr i32 %54, 26
  %56 = icmp slt i32 %52, %55
  br i1 %56, label %57, label %144

57:                                               ; preds = %51
  %58 = load i32, ptr %8, align 4
  %59 = add nsw i32 %58, 1
  store i32 %59, ptr %9, align 4
  br label %60

60:                                               ; preds = %137, %57
  %61 = load i32, ptr %9, align 4
  %62 = load ptr, ptr %7, align 8
  %63 = load i32, ptr %62, align 4
  %64 = lshr i32 %63, 26
  %65 = icmp slt i32 %61, %64
  br i1 %65, label %66, label %140

66:                                               ; preds = %60
  %67 = load ptr, ptr %7, align 8
  %68 = getelementptr inbounds %struct.Kit_DsdObj_t_, ptr %67, i32 0, i32 1
  %69 = load i32, ptr %8, align 4
  %70 = sext i32 %69 to i64
  %71 = getelementptr inbounds [0 x i16], ptr %68, i64 0, i64 %70
  %72 = load i16, ptr %71, align 2
  %73 = zext i16 %72 to i32
  %74 = call i32 @Abc_LitIsCompl(i32 noundef %73)
  %75 = load ptr, ptr %7, align 8
  %76 = getelementptr inbounds %struct.Kit_DsdObj_t_, ptr %75, i32 0, i32 1
  %77 = load i32, ptr %9, align 4
  %78 = sext i32 %77 to i64
  %79 = getelementptr inbounds [0 x i16], ptr %76, i64 0, i64 %78
  %80 = load i16, ptr %79, align 2
  %81 = zext i16 %80 to i32
  %82 = call i32 @Abc_LitIsCompl(i32 noundef %81)
  %83 = icmp ne i32 %74, %82
  br i1 %83, label %84, label %136

84:                                               ; preds = %66
  %85 = load ptr, ptr %4, align 8
  %86 = load ptr, ptr %7, align 8
  %87 = getelementptr inbounds %struct.Kit_DsdObj_t_, ptr %86, i32 0, i32 1
  %88 = load i32, ptr %8, align 4
  %89 = sext i32 %88 to i64
  %90 = getelementptr inbounds [0 x i16], ptr %87, i64 0, i64 %89
  %91 = load i16, ptr %90, align 2
  %92 = zext i16 %91 to i32
  %93 = call i32 @Abc_Lit2Var(i32 noundef %92)
  %94 = call ptr @Kit_DsdNtkObj(ptr noundef %85, i32 noundef %93)
  %95 = icmp eq ptr %94, null
  br i1 %95, label %96, label %136

96:                                               ; preds = %84
  %97 = load ptr, ptr %4, align 8
  %98 = load ptr, ptr %7, align 8
  %99 = getelementptr inbounds %struct.Kit_DsdObj_t_, ptr %98, i32 0, i32 1
  %100 = load i32, ptr %9, align 4
  %101 = sext i32 %100 to i64
  %102 = getelementptr inbounds [0 x i16], ptr %99, i64 0, i64 %101
  %103 = load i16, ptr %102, align 2
  %104 = zext i16 %103 to i32
  %105 = call i32 @Abc_Lit2Var(i32 noundef %104)
  %106 = call ptr @Kit_DsdNtkObj(ptr noundef %97, i32 noundef %105)
  %107 = icmp eq ptr %106, null
  br i1 %107, label %108, label %136

108:                                              ; preds = %96
  %109 = load ptr, ptr %6, align 8
  %110 = load ptr, ptr %109, align 8
  %111 = icmp eq ptr %110, null
  br i1 %111, label %112, label %115

112:                                              ; preds = %108
  %113 = call ptr @Vec_IntAlloc(i32 noundef 16)
  %114 = load ptr, ptr %6, align 8
  store ptr %113, ptr %114, align 8
  br label %115

115:                                              ; preds = %112, %108
  %116 = load ptr, ptr %6, align 8
  %117 = load ptr, ptr %116, align 8
  %118 = load ptr, ptr %7, align 8
  %119 = getelementptr inbounds %struct.Kit_DsdObj_t_, ptr %118, i32 0, i32 1
  %120 = load i32, ptr %8, align 4
  %121 = sext i32 %120 to i64
  %122 = getelementptr inbounds [0 x i16], ptr %119, i64 0, i64 %121
  %123 = load i16, ptr %122, align 2
  %124 = zext i16 %123 to i32
  %125 = call i32 @Abc_Lit2Var(i32 noundef %124)
  %126 = shl i32 %125, 8
  %127 = load ptr, ptr %7, align 8
  %128 = getelementptr inbounds %struct.Kit_DsdObj_t_, ptr %127, i32 0, i32 1
  %129 = load i32, ptr %9, align 4
  %130 = sext i32 %129 to i64
  %131 = getelementptr inbounds [0 x i16], ptr %128, i64 0, i64 %130
  %132 = load i16, ptr %131, align 2
  %133 = zext i16 %132 to i32
  %134 = call i32 @Abc_Lit2Var(i32 noundef %133)
  %135 = or i32 %126, %134
  call void @Vec_IntPush(ptr noundef %117, i32 noundef %135)
  br label %136

136:                                              ; preds = %115, %96, %84, %66
  br label %137

137:                                              ; preds = %136
  %138 = load i32, ptr %9, align 4
  %139 = add nsw i32 %138, 1
  store i32 %139, ptr %9, align 4
  br label %60, !llvm.loop !24

140:                                              ; preds = %60
  br label %141

141:                                              ; preds = %140
  %142 = load i32, ptr %8, align 4
  %143 = add nsw i32 %142, 1
  store i32 %143, ptr %8, align 4
  br label %51, !llvm.loop !25

144:                                              ; preds = %51, %49, %17
  ret void
}