; Function Attrs: nounwind uwtable
define void @Amap_CreateCheckAsym_rec(ptr noundef readonly captures(none) %0, i32 noundef %1, ptr noundef captures(none) %2) local_unnamed_addr #0 {
  %4 = ashr i32 %1, 1
  %5 = load i16, ptr %0, align 8
  %6 = zext i16 %5 to i32
  %7 = icmp slt i32 %4, %6
  br i1 %7, label %Kit_DsdNtkObj.exit.thread, label %Kit_DsdNtkObj.exit

Kit_DsdNtkObj.exit:                               ; preds = %3
  %8 = getelementptr inbounds nuw i8, ptr %0, i64 24
  %9 = load ptr, ptr %8, align 8
  %10 = sub nsw i32 %4, %6
  %11 = sext i32 %10 to i64
  %12 = getelementptr inbounds ptr, ptr %9, i64 %11
  %13 = load ptr, ptr %12, align 8
  %14 = icmp eq ptr %13, null
  br i1 %14, label %Kit_DsdNtkObj.exit.thread, label %.preheader39

.preheader39:                                     ; preds = %Kit_DsdNtkObj.exit
  %15 = load i32, ptr %13, align 4
  %.not45 = icmp ult i32 %15, 67108864
  br i1 %.not45, label %.critedge, label %.lr.ph

.lr.ph:                                           ; preds = %.preheader39
  %16 = getelementptr inbounds nuw i8, ptr %13, i64 4
  br label %17

17:                                               ; preds = %.lr.ph, %17
  %indvars.iv = phi i64 [ 0, %.lr.ph ], [ %indvars.iv.next, %17 ]
  %18 = getelementptr inbounds nuw [0 x i16], ptr %16, i64 0, i64 %indvars.iv
  %19 = load i16, ptr %18, align 2
  %20 = and i16 %19, -2
  %21 = zext i16 %20 to i32
  tail call void @Amap_CreateCheckAsym_rec(ptr noundef nonnull %0, i32 noundef %21, ptr noundef %2)
  %indvars.iv.next = add nuw nsw i64 %indvars.iv, 1
  %22 = load i32, ptr %13, align 4
  %23 = lshr i32 %22, 26
  %24 = zext nneg i32 %23 to i64
  %25 = icmp samesign ult i64 %indvars.iv.next, %24
  br i1 %25, label %17, label %.critedge, !llvm.loop !23

.critedge:                                        ; preds = %17, %.preheader39
  %26 = phi i32 [ %15, %.preheader39 ], [ %22, %17 ]
  %27 = and i32 %26, 448
  %28 = icmp eq i32 %27, 320
  %.not46 = icmp ult i32 %26, 67108864
  %or.cond = or i1 %28, %.not46
  br i1 %or.cond, label %Kit_DsdNtkObj.exit.thread, label %.lr.ph44

.lr.ph44:                                         ; preds = %.critedge
  %29 = getelementptr inbounds nuw i8, ptr %13, i64 4
  br label %32

.loopexit.loopexit:                               ; preds = %115
  %.pre61 = lshr i32 %116, 26
  %.pre62 = zext nneg i32 %.pre61 to i64
  br label %.loopexit

.loopexit:                                        ; preds = %.loopexit.loopexit, %32
  %.pre-phi63 = phi i64 [ %.pre62, %.loopexit.loopexit ], [ %35, %32 ]
  %30 = phi i32 [ %116, %.loopexit.loopexit ], [ %33, %32 ]
  %31 = icmp samesign ult i64 %indvars.iv.next55, %.pre-phi63
  %indvars.iv.next50 = add nuw nsw i64 %indvars.iv49, 1
  br i1 %31, label %32, label %Kit_DsdNtkObj.exit.thread, !llvm.loop !24

32:                                               ; preds = %.lr.ph44, %.loopexit
  %33 = phi i32 [ %26, %.lr.ph44 ], [ %30, %.loopexit ]
  %indvars.iv54 = phi i64 [ 0, %.lr.ph44 ], [ %indvars.iv.next55, %.loopexit ]
  %indvars.iv49 = phi i64 [ 1, %.lr.ph44 ], [ %indvars.iv.next50, %.loopexit ]
  %indvars.iv.next55 = add nuw nsw i64 %indvars.iv54, 1
  %34 = lshr i32 %33, 26
  %35 = zext nneg i32 %34 to i64
  %36 = icmp samesign ult i64 %indvars.iv.next55, %35
  br i1 %36, label %.lr.ph42, label %.loopexit

.lr.ph42:                                         ; preds = %32
  %37 = getelementptr inbounds nuw [0 x i16], ptr %29, i64 0, i64 %indvars.iv54
  br label %38

38:                                               ; preds = %.lr.ph42, %115
  %39 = phi i32 [ %33, %.lr.ph42 ], [ %116, %115 ]
  %40 = phi i32 [ %33, %.lr.ph42 ], [ %117, %115 ]
  %indvars.iv51 = phi i64 [ %indvars.iv49, %.lr.ph42 ], [ %indvars.iv.next52, %115 ]
  %41 = load i16, ptr %37, align 2
  %42 = zext i16 %41 to i32
  %43 = getelementptr inbounds nuw [0 x i16], ptr %29, i64 0, i64 %indvars.iv51
  %44 = load i16, ptr %43, align 2
  %45 = zext i16 %44 to i32
  %46 = xor i32 %45, %42
  %47 = and i32 %46, 1
  %.not = icmp eq i32 %47, 0
  br i1 %.not, label %115, label %48

48:                                               ; preds = %38
  %49 = lshr i32 %42, 1
  %50 = load i16, ptr %0, align 8
  %51 = zext i16 %50 to i32
  %52 = icmp samesign ult i32 %49, %51
  br i1 %52, label %Kit_DsdNtkObj.exit37.thread, label %Kit_DsdNtkObj.exit37

Kit_DsdNtkObj.exit37:                             ; preds = %48
  %53 = load ptr, ptr %8, align 8
  %54 = sub nuw nsw i32 %49, %51
  %55 = zext nneg i32 %54 to i64
  %56 = getelementptr inbounds nuw ptr, ptr %53, i64 %55
  %57 = load ptr, ptr %56, align 8
  %58 = icmp eq ptr %57, null
  br i1 %58, label %Kit_DsdNtkObj.exit37.thread, label %115

Kit_DsdNtkObj.exit37.thread:                      ; preds = %48, %Kit_DsdNtkObj.exit37
  %59 = lshr i32 %45, 1
  %60 = icmp samesign ult i32 %59, %51
  br i1 %60, label %Kit_DsdNtkObj.exit38.thread, label %Kit_DsdNtkObj.exit38

Kit_DsdNtkObj.exit38:                             ; preds = %Kit_DsdNtkObj.exit37.thread
  %61 = load ptr, ptr %8, align 8
  %62 = sub nuw nsw i32 %59, %51
  %63 = zext nneg i32 %62 to i64
  %64 = getelementptr inbounds nuw ptr, ptr %61, i64 %63
  %65 = load ptr, ptr %64, align 8
  %66 = icmp eq ptr %65, null
  br i1 %66, label %Kit_DsdNtkObj.exit38.thread, label %115

Kit_DsdNtkObj.exit38.thread:                      ; preds = %Kit_DsdNtkObj.exit37.thread, %Kit_DsdNtkObj.exit38
  %67 = load ptr, ptr %2, align 8
  %68 = icmp eq ptr %67, null
  br i1 %68, label %69, label %Kit_DsdNtkObj.exit38.thread._crit_edge

Kit_DsdNtkObj.exit38.thread._crit_edge:           ; preds = %Kit_DsdNtkObj.exit38.thread
  %.phi.trans.insert = getelementptr inbounds nuw i8, ptr %67, i64 4
  %.pre58 = load i32, ptr %.phi.trans.insert, align 4
  %.pre59 = load i32, ptr %67, align 8
  br label %74

69:                                               ; preds = %Kit_DsdNtkObj.exit38.thread
  %70 = tail call noalias dereferenceable_or_null(16) ptr @malloc(i64 noundef 16) #10
  %71 = getelementptr inbounds nuw i8, ptr %70, i64 4
  store i32 0, ptr %71, align 4
  store i32 16, ptr %70, align 8
  %72 = tail call noalias dereferenceable_or_null(64) ptr @malloc(i64 noundef 64) #10
  %73 = getelementptr inbounds nuw i8, ptr %70, i64 8
  store ptr %72, ptr %73, align 8
  store ptr %70, ptr %2, align 8
  %.pre = load i16, ptr %37, align 2
  %.pre57 = load i16, ptr %43, align 2
  br label %74

74:                                               ; preds = %Kit_DsdNtkObj.exit38.thread._crit_edge, %69
  %75 = phi i32 [ 16, %69 ], [ %.pre59, %Kit_DsdNtkObj.exit38.thread._crit_edge ]
  %76 = phi i32 [ 0, %69 ], [ %.pre58, %Kit_DsdNtkObj.exit38.thread._crit_edge ]
  %77 = phi i16 [ %.pre57, %69 ], [ %44, %Kit_DsdNtkObj.exit38.thread._crit_edge ]
  %78 = phi i16 [ %.pre, %69 ], [ %41, %Kit_DsdNtkObj.exit38.thread._crit_edge ]
  %79 = phi ptr [ %70, %69 ], [ %67, %Kit_DsdNtkObj.exit38.thread._crit_edge ]
  %80 = lshr i16 %78, 1
  %81 = zext nneg i16 %80 to i32
  %82 = shl nuw nsw i32 %81, 8
  %83 = lshr i16 %77, 1
  %84 = zext nneg i16 %83 to i32
  %85 = or i32 %82, %84
  %86 = getelementptr inbounds nuw i8, ptr %79, i64 4
  %87 = icmp eq i32 %76, %75
  br i1 %87, label %88, label %.Vec_IntGrow.exit10_crit_edge.i

.Vec_IntGrow.exit10_crit_edge.i:                  ; preds = %74
  %.phi.trans.insert.i = getelementptr inbounds nuw i8, ptr %79, i64 8
  %.pre.i = load ptr, ptr %.phi.trans.insert.i, align 8
  br label %Vec_IntPush.exit

88:                                               ; preds = %74
  %89 = icmp slt i32 %75, 16
  br i1 %89, label %90, label %98

90:                                               ; preds = %88
  %91 = getelementptr inbounds nuw i8, ptr %79, i64 8
  %92 = load ptr, ptr %91, align 8
  %.not9.i.i = icmp eq ptr %92, null
  br i1 %.not9.i.i, label %95, label %93

93:                                               ; preds = %90
  %94 = tail call dereferenceable_or_null(64) ptr @realloc(ptr noundef nonnull %92, i64 noundef 64) #12
  br label %Vec_IntGrow.exit.i

95:                                               ; preds = %90
  %96 = tail call noalias dereferenceable_or_null(64) ptr @malloc(i64 noundef 64) #10
  br label %Vec_IntGrow.exit.i

Vec_IntGrow.exit.i:                               ; preds = %95, %93
  %97 = phi ptr [ %94, %93 ], [ %96, %95 ]
  store ptr %97, ptr %91, align 8
  store i32 16, ptr %79, align 8
  br label %Vec_IntPush.exit

98:                                               ; preds = %88
  %99 = shl nuw nsw i32 %75, 1
  %100 = getelementptr inbounds nuw i8, ptr %79, i64 8
  %101 = load ptr, ptr %100, align 8
  %.not9.i9.i = icmp eq ptr %101, null
  %102 = zext nneg i32 %99 to i64
  %103 = shl nuw nsw i64 %102, 2
  br i1 %.not9.i9.i, label %106, label %104

104:                                              ; preds = %98
  %105 = tail call ptr @realloc(ptr noundef nonnull %101, i64 noundef %103) #12
  br label %108

106:                                              ; preds = %98
  %107 = tail call noalias ptr @malloc(i64 noundef %103) #10
  br label %108

108:                                              ; preds = %106, %104
  %109 = phi ptr [ %105, %104 ], [ %107, %106 ]
  store ptr %109, ptr %100, align 8
  store i32 %99, ptr %79, align 8
  br label %Vec_IntPush.exit

Vec_IntPush.exit:                                 ; preds = %.Vec_IntGrow.exit10_crit_edge.i, %Vec_IntGrow.exit.i, %108
  %110 = phi ptr [ %.pre.i, %.Vec_IntGrow.exit10_crit_edge.i ], [ %109, %108 ], [ %97, %Vec_IntGrow.exit.i ]
  %111 = load i32, ptr %86, align 4
  %112 = add nsw i32 %111, 1
  store i32 %112, ptr %86, align 4
  %113 = sext i32 %111 to i64
  %114 = getelementptr inbounds i32, ptr %110, i64 %113
  store i32 %85, ptr %114, align 4
  %.pre60 = load i32, ptr %13, align 4
  br label %115

115:                                              ; preds = %38, %Kit_DsdNtkObj.exit37, %Kit_DsdNtkObj.exit38, %Vec_IntPush.exit
  %116 = phi i32 [ %39, %38 ], [ %39, %Kit_DsdNtkObj.exit37 ], [ %39, %Kit_DsdNtkObj.exit38 ], [ %.pre60, %Vec_IntPush.exit ]
  %117 = phi i32 [ %40, %38 ], [ %40, %Kit_DsdNtkObj.exit37 ], [ %40, %Kit_DsdNtkObj.exit38 ], [ %.pre60, %Vec_IntPush.exit ]
  %indvars.iv.next52 = add nuw nsw i64 %indvars.iv51, 1
  %118 = lshr i32 %117, 26
  %119 = zext nneg i32 %118 to i64
  %120 = icmp samesign ult i64 %indvars.iv.next52, %119
  br i1 %120, label %38, label %.loopexit.loopexit, !llvm.loop !25

Kit_DsdNtkObj.exit.thread:                        ; preds = %.loopexit, %3, %.critedge, %Kit_DsdNtkObj.exit
  ret void
}